target datalayout = "e-m:e-p270:32:32-p271:32:32-p272:64:64-i64:64-i128:128-f80:128-n8:16:32:64-S128"
target triple = "x86_64-unknown-linux-gnu"

%"class.icu_75::UObject" = type { ptr }
%"class.icu_75::CollationBuilder" = type { %"class.icu_75::CollationRuleParser::Sink", ptr, ptr, ptr, ptr, ptr, %"class.icu_75::CollationRootElements", i32, ptr, i8, i8, [6 x i8], %"class.icu_75::UnicodeSet", ptr, [31 x i64], i32, %"class.icu_75::UVector32", %"class.icu_75::UVector64" }
%"class.icu_75::CollationRuleParser::Sink" = type { %"class.icu_75::UObject" }
%"class.icu_75::CollationRootElements" = type <{ ptr, i32, [4 x i8] }>
%"class.icu_75::UnicodeSet" = type <{ %"class.icu_75::UnicodeFilter", ptr, i32, i32, i8, [7 x i8], ptr, ptr, i32, [4 x i8], ptr, i32, [4 x i8], ptr, ptr, [25 x i32], [4 x i8] }>
%"class.icu_75::UnicodeFilter" = type { %"class.icu_75::UnicodeFunctor", %"class.icu_75::UnicodeMatcher" }
%"class.icu_75::UnicodeFunctor" = type { %"class.icu_75::UObject" }
%"class.icu_75::UnicodeMatcher" = type { ptr }
%"class.icu_75::UVector32" = type { %"class.icu_75::UObject", i32, i32, i32, ptr }
%"class.icu_75::UVector64" = type { %"class.icu_75::UObject", i32, i32, i32, ptr }

@.str.24 = private unnamed_addr constant [61 x i8] c"tailoring relative to an unassigned code point not supported\00", align 1

; Function Attrs: mustprogress nounwind uwtable
define linkonce_odr noundef i32 @_ZN6icu_7516CollationBuilder18strengthFromTempCEEl(i64 noundef %tempCE) #3 comdat align 2 {
entry:
  %tempCE.addr = alloca i64, align 8
  store i64 %tempCE, ptr %tempCE.addr, align 8
  %0 = load i64, ptr %tempCE.addr, align 8
  %conv = trunc i64 %0 to i32
  %shr = ashr i32 %conv, 8
  %and = and i32 %shr, 3
  ret i32 %and
}

; Function Attrs: mustprogress uwtable
define noundef i32 @_ZN6icu_7516CollationBuilder25findOrInsertNodeForRootCEEliR10UErrorCode(ptr noundef nonnull align 8 dereferenceable(616) %this, i64 noundef %ce, i32 noundef %strength, ptr noundef nonnull align 4 dereferenceable(4) %errorCode) #0 align 2 {
entry:
  %retval = alloca i32, align 4
  %this.addr = alloca ptr, align 8
  %ce.addr = alloca i64, align 8
  %strength.addr = alloca i32, align 4
  %errorCode.addr = alloca ptr, align 8
  %index = alloca i32, align 4
  %lower32 = alloca i32, align 4
  store ptr %this, ptr %this.addr, align 8
  store i64 %ce, ptr %ce.addr, align 8
  store i32 %strength, ptr %strength.addr, align 4
  store ptr %errorCode, ptr %errorCode.addr, align 8
  %this1 = load ptr, ptr %this.addr, align 8
  %0 = load ptr, ptr %errorCode.addr, align 8
  %1 = load i32, ptr %0, align 4
  %call = call noundef signext i8 @_ZL9U_FAILURE10UErrorCode(i32 noundef %1)
  %tobool = icmp ne i8 %call, 0
  br i1 %tobool, label %if.then, label %if.end

if.then:                                          ; preds = %entry
  store i32 0, ptr %retval, align 4
  br label %return

if.end:                                           ; preds = %entry
  %2 = load i64, ptr %ce.addr, align 8
  %shr = ashr i64 %2, 32
  %conv = trunc i64 %shr to i32
  %3 = load ptr, ptr %errorCode.addr, align 8
  %call2 = call noundef i32 @_ZN6icu_7516CollationBuilder26findOrInsertNodeForPrimaryEjR10UErrorCode(ptr noundef nonnull align 8 dereferenceable(616) %this1, i32 noundef %conv, ptr noundef nonnull align 4 dereferenceable(4) %3)
  store i32 %call2, ptr %index, align 4
  %4 = load i32, ptr %strength.addr, align 4
  %cmp = icmp sge i32 %4, 1
  br i1 %cmp, label %if.then3, label %if.end11

if.then3:                                         ; preds = %if.end
  %5 = load i64, ptr %ce.addr, align 8
  %conv4 = trunc i64 %5 to i32
  store i32 %conv4, ptr %lower32, align 4
  %6 = load i32, ptr %index, align 4
  %7 = load i32, ptr %lower32, align 4
  %shr5 = lshr i32 %7, 16
  %8 = load ptr, ptr %errorCode.addr, align 8
  %call6 = call noundef i32 @_ZN6icu_7516CollationBuilder20findOrInsertWeakNodeEijiR10UErrorCode(ptr noundef nonnull align 8 dereferenceable(616) %this1, i32 noundef %6, i32 noundef %shr5, i32 noundef 1, ptr noundef nonnull align 4 dereferenceable(4) %8)
  store i32 %call6, ptr %index, align 4
  %9 = load i32, ptr %strength.addr, align 4
  %cmp7 = icmp sge i32 %9, 2
  br i1 %cmp7, label %if.then8, label %if.end10

if.then8:                                         ; preds = %if.then3
  %10 = load i32, ptr %index, align 4
  %11 = load i32, ptr %lower32, align 4
  %and = and i32 %11, 16191
  %12 = load ptr, ptr %errorCode.addr, align 8
  %call9 = call noundef i32 @_ZN6icu_7516CollationBuilder20findOrInsertWeakNodeEijiR10UErrorCode(ptr noundef nonnull align 8 dereferenceable(616) %this1, i32 noundef %10, i32 noundef %and, i32 noundef 2, ptr noundef nonnull align 4 dereferenceable(4) %12)
  store i32 %call9, ptr %index, align 4
  br label %if.end10

if.end10:                                         ; preds = %if.then8, %if.then3
  br label %if.end11

if.end11:                                         ; preds = %if.end10, %if.end
  %13 = load i32, ptr %index, align 4
  store i32 %13, ptr %retval, align 4
  br label %return

return:                                           ; preds = %if.end11, %if.then
  %14 = load i32, ptr %retval, align 4
  ret i32 %14
}

; Function Attrs: mustprogress nounwind uwtable
define linkonce_odr noundef i32 @_ZN6icu_7516CollationBuilder15indexFromTempCEEl(i64 noundef %tempCE) #3 comdat align 2 {
entry:
  %tempCE.addr = alloca i64, align 8
  store i64 %tempCE, ptr %tempCE.addr, align 8
  %0 = load i64, ptr %tempCE.addr, align 8
  %sub = sub nsw i64 %0, 4629700417037541376
  store i64 %sub, ptr %tempCE.addr, align 8
  %1 = load i64, ptr %tempCE.addr, align 8
  %shr = ashr i64 %1, 43
  %conv = trunc i64 %shr to i32
  %and = and i32 %conv, 1040384
  %2 = load i64, ptr %tempCE.addr, align 8
  %shr1 = ashr i64 %2, 42
  %conv2 = trunc i64 %shr1 to i32
  %and3 = and i32 %conv2, 8128
  %or = or i32 %and, %and3
  %3 = load i64, ptr %tempCE.addr, align 8
  %shr4 = ashr i64 %3, 24
  %conv5 = trunc i64 %shr4 to i32
  %and6 = and i32 %conv5, 63
  %or7 = or i32 %or, %and6
  ret i32 %or7
}

; Function Attrs: mustprogress nounwind uwtable
define linkonce_odr noundef signext i8 @_ZN6icu_7516CollationBuilder8isTempCEEl(i64 noundef %ce) #3 comdat align 2 {
entry:
  %ce.addr = alloca i64, align 8
  %sec = alloca i32, align 4
  store i64 %ce, ptr %ce.addr, align 8
  %0 = load i64, ptr %ce.addr, align 8
  %conv = trunc i64 %0 to i32
  %shr = lshr i32 %conv, 24
  store i32 %shr, ptr %sec, align 4
  %1 = load i32, ptr %sec, align 4
  %cmp = icmp ule i32 6, %1
  br i1 %cmp, label %land.rhs, label %land.end

land.rhs:                                         ; preds = %entry
  %2 = load i32, ptr %sec, align 4
  %cmp1 = icmp ule i32 %2, 69
  br label %land.end

land.end:                                         ; preds = %land.rhs, %entry
  %3 = phi i1 [ false, %entry ], [ %cmp1, %land.rhs ]
  %conv2 = zext i1 %3 to i8
  ret i8 %conv2
}

; Function Attrs: mustprogress uwtable
define noundef i32 @_ZN6icu_7516CollationBuilder10ceStrengthEl(i64 noundef %ce) #0 align 2 {
entry:
  %ce.addr = alloca i64, align 8
  store i64 %ce, ptr %ce.addr, align 8
  %0 = load i64, ptr %ce.addr, align 8
  %call = call noundef signext i8 @_ZN6icu_7516CollationBuilder8isTempCEEl(i64 noundef %0)
  %tobool = icmp ne i8 %call, 0
  br i1 %tobool, label %cond.true, label %cond.false

cond.true:                                        ; preds = %entry
  %1 = load i64, ptr %ce.addr, align 8
  %call1 = call noundef i32 @_ZN6icu_7516CollationBuilder18strengthFromTempCEEl(i64 noundef %1)
  br label %cond.end12

cond.false:                                       ; preds = %entry
  %2 = load i64, ptr %ce.addr, align 8
  %and = and i64 %2, -72057594037927936
  %cmp = icmp ne i64 %and, 0
  br i1 %cmp, label %cond.true2, label %cond.false3

cond.true2:                                       ; preds = %cond.false
  br label %cond.end10

cond.false3:                                      ; preds = %cond.false
  %3 = load i64, ptr %ce.addr, align 8
  %conv = trunc i64 %3 to i32
  %and4 = and i32 %conv, -16777216
  %cmp5 = icmp ne i32 %and4, 0
  br i1 %cmp5, label %cond.true6, label %cond.false7

cond.true6:                                       ; preds = %cond.false3
  br label %cond.end

cond.false7:                                      ; preds = %cond.false3
  %4 = load i64, ptr %ce.addr, align 8
  %cmp8 = icmp ne i64 %4, 0
  %cond = select i1 %cmp8, i32 2, i32 15
  br label %cond.end

cond.end:                                         ; preds = %cond.false7, %cond.true6
  %cond9 = phi i32 [ 1, %cond.true6 ], [ %cond, %cond.false7 ]
  br label %cond.end10

cond.end10:                                       ; preds = %cond.end, %cond.true2
  %cond11 = phi i32 [ 0, %cond.true2 ], [ %cond9, %cond.end ]
  br label %cond.end12

cond.end12:                                       ; preds = %cond.end10, %cond.true
  %cond13 = phi i32 [ %call1, %cond.true ], [ %cond11, %cond.end10 ]
  ret i32 %cond13
}

; Function Attrs: mustprogress nounwind uwtable
define internal noundef signext i8 @_ZL9U_FAILURE10UErrorCode(i32 noundef %code) #3 {
entry:
  %code.addr = alloca i32, align 4
  store i32 %code, ptr %code.addr, align 4
  %0 = load i32, ptr %code.addr, align 4
  %cmp = icmp sgt i32 %0, 0
  %conv = zext i1 %cmp to i8
  ret i8 %conv
}

; Function Attrs: mustprogress uwtable
define noundef i32 @_ZN6icu_7516CollationBuilder22findOrInsertNodeForCEsEiRPKcR10UErrorCode(ptr noundef nonnull align 8 dereferenceable(616) %this, i32 noundef %strength, ptr noundef nonnull align 8 dereferenceable(8) %parserErrorReason, ptr noundef nonnull align 4 dereferenceable(4) %errorCode) #0 align 2 {
entry:
  %retval = alloca i32, align 4
  %this.addr = alloca ptr, align 8
  %strength.addr = alloca i32, align 4
  %parserErrorReason.addr = alloca ptr, align 8
  %errorCode.addr = alloca ptr, align 8
  %ce = alloca i64, align 8
  store ptr %this, ptr %this.addr, align 8
  store i32 %strength, ptr %strength.addr, align 4
  store ptr %parserErrorReason, ptr %parserErrorReason.addr, align 8
  store ptr %errorCode, ptr %errorCode.addr, align 8
  %this1 = load ptr, ptr %this.addr, align 8
  %0 = load ptr, ptr %errorCode.addr, align 8
  %1 = load i32, ptr %0, align 4
  %call = call noundef signext i8 @_ZL9U_FAILURE10UErrorCode(i32 noundef %1)
  %tobool = icmp ne i8 %call, 0
  br i1 %tobool, label %if.then, label %if.end

if.then:                                          ; preds = %entry
  store i32 0, ptr %retval, align 4
  br label %return

if.end:                                           ; preds = %entry
  br label %for.cond

for.cond:                                         ; preds = %for.inc, %if.end
  %cesLength = getelementptr inbounds %"class.icu_75::CollationBuilder", ptr %this1, i32 0, i32 15
  %2 = load i32, ptr %cesLength, align 8
  %cmp = icmp eq i32 %2, 0
  br i1 %cmp, label %if.then2, label %if.else

if.then2:                                         ; preds = %for.cond
  %ces = getelementptr inbounds %"class.icu_75::CollationBuilder", ptr %this1, i32 0, i32 14
  %arrayidx = getelementptr inbounds [31 x i64], ptr %ces, i64 0, i64 0
  store i64 0, ptr %arrayidx, align 8
  store i64 0, ptr %ce, align 8
  %cesLength3 = getelementptr inbounds %"class.icu_75::CollationBuilder", ptr %this1, i32 0, i32 15
  store i32 1, ptr %cesLength3, align 8
  br label %for.end

if.else:                                          ; preds = %for.cond
  %ces4 = getelementptr inbounds %"class.icu_75::CollationBuilder", ptr %this1, i32 0, i32 14
  %cesLength5 = getelementptr inbounds %"class.icu_75::CollationBuilder", ptr %this1, i32 0, i32 15
  %3 = load i32, ptr %cesLength5, align 8
  %sub = sub nsw i32 %3, 1
  %idxprom = sext i32 %sub to i64
  %arrayidx6 = getelementptr inbounds [31 x i64], ptr %ces4, i64 0, i64 %idxprom
  %4 = load i64, ptr %arrayidx6, align 8
  store i64 %4, ptr %ce, align 8
  br label %if.end7

if.end7:                                          ; preds = %if.else
  %5 = load i64, ptr %ce, align 8
  %call8 = call noundef i32 @_ZN6icu_7516CollationBuilder10ceStrengthEl(i64 noundef %5)
  %6 = load i32, ptr %strength.addr, align 4
  %cmp9 = icmp sle i32 %call8, %6
  br i1 %cmp9, label %if.then10, label %if.end11

if.then10:                                        ; preds = %if.end7
  br label %for.end

if.end11:                                         ; preds = %if.end7
  br label %for.inc

for.inc:                                          ; preds = %if.end11
  %cesLength12 = getelementptr inbounds %"class.icu_75::CollationBuilder", ptr %this1, i32 0, i32 15
  %7 = load i32, ptr %cesLength12, align 8
  %dec = add nsw i32 %7, -1
  store i32 %dec, ptr %cesLength12, align 8
  br label %for.cond, !llvm.loop !13

for.end:                                          ; preds = %if.then10, %if.then2
  %8 = load i64, ptr %ce, align 8
  %call13 = call noundef signext i8 @_ZN6icu_7516CollationBuilder8isTempCEEl(i64 noundef %8)
  %tobool14 = icmp ne i8 %call13, 0
  br i1 %tobool14, label %if.then15, label %if.end17

if.then15:                                        ; preds = %for.end
  %9 = load i64, ptr %ce, align 8
  %call16 = call noundef i32 @_ZN6icu_7516CollationBuilder15indexFromTempCEEl(i64 noundef %9)
  store i32 %call16, ptr %retval, align 4
  br label %return

if.end17:                                         ; preds = %for.end
  %10 = load i64, ptr %ce, align 8
  %shr = ashr i64 %10, 56
  %conv = trunc i64 %shr to i8
  %conv18 = zext i8 %conv to i32
  %cmp19 = icmp eq i32 %conv18, 254
  br i1 %cmp19, label %if.then20, label %if.end21

if.then20:                                        ; preds = %if.end17
  %11 = load ptr, ptr %errorCode.addr, align 8
  store i32 16, ptr %11, align 4
  %12 = load ptr, ptr %parserErrorReason.addr, align 8
  store ptr @.str.24, ptr %12, align 8
  store i32 0, ptr %retval, align 4
  br label %return

if.end21:                                         ; preds = %if.end17
  %13 = load i64, ptr %ce, align 8
  %14 = load i32, ptr %strength.addr, align 4
  %15 = load ptr, ptr %errorCode.addr, align 8
  %call22 = call noundef i32 @_ZN6icu_7516CollationBuilder25findOrInsertNodeForRootCEEliR10UErrorCode(ptr noundef nonnull align 8 dereferenceable(616) %this1, i64 noundef %13, i32 noundef %14, ptr noundef nonnull align 4 dereferenceable(4) %15)
  store i32 %call22, ptr %retval, align 4
  br label %return

return:                                           ; preds = %if.end21, %if.then20, %if.then15, %if.then
  %16 = load i32, ptr %retval, align 4
  ret i32 %16
}