; Function Attrs: mustprogress uwtable
define noundef i32 @_ZN6icu_7516CollationBuilder22findOrInsertNodeForCEsEiRPKcR10UErrorCode(ptr noundef nonnull align 8 dereferenceable(616) %this, i32 noundef %strength, ptr nocapture noundef nonnull writeonly align 8 dereferenceable(8) %parserErrorReason, ptr noundef nonnull align 4 dereferenceable(4) %errorCode) local_unnamed_addr #0 align 2 {
entry:
  %0 = load i32, ptr %errorCode, align 4
  %cmp.i = icmp slt i32 %0, 1
  br i1 %cmp.i, label %for.cond.preheader, label %return

for.cond.preheader:                               ; preds = %entry
  %cesLength = getelementptr inbounds i8, ptr %this, i64 544
  %cesLength.promoted = load i32, ptr %cesLength, align 8
  %cmp28 = icmp eq i32 %cesLength.promoted, 0
  br i1 %cmp28, label %if.end17.thread, label %if.else.lr.ph

if.else.lr.ph:                                    ; preds = %for.cond.preheader
  %ces4 = getelementptr inbounds i8, ptr %this, i64 296
  %1 = sext i32 %cesLength.promoted to i64
  br label %if.else

if.end17.thread:                                  ; preds = %for.inc, %for.cond.preheader
  %ces = getelementptr inbounds i8, ptr %this, i64 296
  store i64 0, ptr %ces, align 8
  store i32 1, ptr %cesLength, align 8
  br label %if.end21

if.else:                                          ; preds = %if.else.lr.ph, %for.inc
  %indvars.iv = phi i64 [ %1, %if.else.lr.ph ], [ %indvars.iv.next, %for.inc ]
  %indvars.iv.next = add nsw i64 %indvars.iv, -1
  %arrayidx6 = getelementptr inbounds [31 x i64], ptr %ces4, i64 0, i64 %indvars.iv.next
  %2 = load i64, ptr %arrayidx6, align 8
  %conv.i.i = trunc i64 %2 to i32
  %3 = add i32 %conv.i.i, -1174405120
  %4 = icmp ult i32 %3, -1073741824
  br i1 %4, label %cond.false.i, label %_ZN6icu_7516CollationBuilder10ceStrengthEl.exit.thread

cond.false.i:                                     ; preds = %if.else
  %cmp.not.i = icmp ult i64 %2, 72057594037927936
  br i1 %cmp.not.i, label %cond.false3.i, label %_ZN6icu_7516CollationBuilder10ceStrengthEl.exit

cond.false3.i:                                    ; preds = %cond.false.i
  %5 = and i64 %2, 4278190080
  %cmp5.not.i = icmp eq i64 %5, 0
  %cmp8.not.i = icmp eq i64 %2, 0
  %cond.i = select i1 %cmp8.not.i, i32 15, i32 2
  %cond9.i = select i1 %cmp5.not.i, i32 %cond.i, i32 1
  br label %_ZN6icu_7516CollationBuilder10ceStrengthEl.exit

_ZN6icu_7516CollationBuilder10ceStrengthEl.exit:  ; preds = %cond.false.i, %cond.false3.i
  %cond13.i = phi i32 [ %cond9.i, %cond.false3.i ], [ 0, %cond.false.i ]
  %cmp9.not = icmp sgt i32 %cond13.i, %strength
  br i1 %cmp9.not, label %for.inc, label %for.end

_ZN6icu_7516CollationBuilder10ceStrengthEl.exit.thread: ; preds = %if.else
  %shr.i.i = lshr i32 %conv.i.i, 8
  %and.i.i = and i32 %shr.i.i, 3
  %cmp9.not32 = icmp sgt i32 %and.i.i, %strength
  br i1 %cmp9.not32, label %for.inc, label %if.then15

for.inc:                                          ; preds = %_ZN6icu_7516CollationBuilder10ceStrengthEl.exit.thread, %_ZN6icu_7516CollationBuilder10ceStrengthEl.exit
  %6 = trunc i64 %indvars.iv.next to i32
  store i32 %6, ptr %cesLength, align 8
  %cmp = icmp eq i32 %6, 0
  br i1 %cmp, label %if.end17.thread, label %if.else, !llvm.loop !20

for.end:                                          ; preds = %_ZN6icu_7516CollationBuilder10ceStrengthEl.exit
  br i1 %4, label %if.end17, label %if.then15

if.then15:                                        ; preds = %_ZN6icu_7516CollationBuilder10ceStrengthEl.exit.thread, %for.end
  %sub.i = add nsw i64 %2, -4629700417037541376
  %shr.i = lshr i64 %sub.i, 43
  %conv.i9 = trunc i64 %shr.i to i32
  %and.i = and i32 %conv.i9, 1040384
  %shr1.i = lshr i64 %sub.i, 42
  %conv2.i10 = trunc i64 %shr1.i to i32
  %and3.i = and i32 %conv2.i10, 8128
  %or.i = or disjoint i32 %and.i, %and3.i
  %7 = trunc i64 %sub.i to i32
  %8 = lshr i32 %7, 24
  %and6.i = and i32 %8, 63
  %or7.i = or disjoint i32 %or.i, %and6.i
  br label %return

if.end17:                                         ; preds = %for.end
  %shr.mask = and i64 %2, -72057594037927936
  %cmp19 = icmp eq i64 %shr.mask, -144115188075855872
  br i1 %cmp19, label %if.then20, label %if.end21

if.then20:                                        ; preds = %if.end17
  store i32 16, ptr %errorCode, align 4
  store ptr @.str.24, ptr %parserErrorReason, align 8
  br label %return

if.end21:                                         ; preds = %if.end17.thread, %if.end17
  %ce.01926 = phi i64 [ 0, %if.end17.thread ], [ %2, %if.end17 ]
  %conv.i82025 = phi i32 [ 0, %if.end17.thread ], [ %conv.i.i, %if.end17 ]
  %9 = load i32, ptr %errorCode, align 4
  %cmp.i.i = icmp slt i32 %9, 1
  br i1 %cmp.i.i, label %if.end.i, label %return

if.end.i:                                         ; preds = %if.end21
  %shr.i11 = lshr i64 %ce.01926, 32
  %conv.i12 = trunc i64 %shr.i11 to i32
  %call2.i = tail call noundef i32 @_ZN6icu_7516CollationBuilder26findOrInsertNodeForPrimaryEjR10UErrorCode(ptr noundef nonnull align 8 dereferenceable(616) %this, i32 noundef %conv.i12, ptr noundef nonnull align 4 dereferenceable(4) %errorCode)
  %cmp.i13 = icmp sgt i32 %strength, 0
  br i1 %cmp.i13, label %if.then3.i, label %return

if.then3.i:                                       ; preds = %if.end.i
  %shr5.i = lshr i32 %conv.i82025, 16
  %call6.i = tail call noundef i32 @_ZN6icu_7516CollationBuilder20findOrInsertWeakNodeEijiR10UErrorCode(ptr noundef nonnull align 8 dereferenceable(616) %this, i32 noundef %call2.i, i32 noundef %shr5.i, i32 noundef 1, ptr noundef nonnull align 4 dereferenceable(4) %errorCode)
  %cmp7.not.i = icmp eq i32 %strength, 1
  br i1 %cmp7.not.i, label %return, label %if.then8.i

if.then8.i:                                       ; preds = %if.then3.i
  %and.i14 = and i32 %conv.i82025, 16191
  %call9.i = tail call noundef i32 @_ZN6icu_7516CollationBuilder20findOrInsertWeakNodeEijiR10UErrorCode(ptr noundef nonnull align 8 dereferenceable(616) %this, i32 noundef %call6.i, i32 noundef %and.i14, i32 noundef 2, ptr noundef nonnull align 4 dereferenceable(4) %errorCode)
  br label %return

return:                                           ; preds = %if.then8.i, %if.then3.i, %if.end.i, %if.end21, %entry, %if.then20, %if.then15
  %retval.0 = phi i32 [ %or7.i, %if.then15 ], [ 0, %if.then20 ], [ 0, %entry ], [ 0, %if.end21 ], [ %call9.i, %if.then8.i ], [ %call6.i, %if.then3.i ], [ %call2.i, %if.end.i ]
  ret i32 %retval.0
}